target datalayout = "e-m:e-p270:32:32-p271:32:32-p272:64:64-i64:64-i128:128-f80:128-n8:16:32:64-S128"
target triple = "x86_64-pc-linux-gnu"

%struct.AVFilterContext = type { ptr, ptr, ptr, ptr, ptr, i32, ptr, ptr, i32, ptr, ptr, i32, i32, ptr, ptr, ptr, ptr, i32, ptr, i32, i32 }
%struct.SiTiContext = type { ptr, i32, i32, i32, i64, ptr, float, float, float, float, float, float, ptr, ptr, i32, i32 }
%struct.AVFilterLink = type { ptr, ptr, ptr, ptr, i32, i32, i32, i32, %struct.AVRational, i32, i32, i32, %struct.AVChannelLayout, %struct.AVRational, ptr, i32, %struct.AVFilterFormatsConfig, %struct.AVFilterFormatsConfig }
%struct.AVChannelLayout = type { i32, i32, %union.anon.1, ptr }
%union.anon.1 = type { i64 }
%struct.AVRational = type { i32, i32 }
%struct.AVFilterFormatsConfig = type { ptr, ptr, ptr, ptr, ptr }

; Function Attrs: nounwind uwtable
define internal i32 @config_input(ptr noundef %0) #1 {
  %2 = alloca i32, align 4
  %3 = alloca ptr, align 8
  %4 = alloca ptr, align 8
  %5 = alloca ptr, align 8
  %6 = alloca [4 x i32], align 16
  %7 = alloca i64, align 8
  %8 = alloca i64, align 8
  %9 = alloca i64, align 8
  %10 = alloca i64, align 8
  %11 = alloca ptr, align 8
  %12 = alloca i32, align 4
  store ptr %0, ptr %3, align 8, !tbaa !37
  call void @llvm.lifetime.start.p0(i64 8, ptr %4) #6
  %13 = load ptr, ptr %3, align 8, !tbaa !37
  %14 = getelementptr inbounds nuw %struct.AVFilterLink, ptr %13, i32 0, i32 2
  %15 = load ptr, ptr %14, align 8, !tbaa !41
  store ptr %15, ptr %4, align 8, !tbaa !4
  call void @llvm.lifetime.start.p0(i64 8, ptr %5) #6
  %16 = load ptr, ptr %4, align 8, !tbaa !4
  %17 = getelementptr inbounds nuw %struct.AVFilterContext, ptr %16, i32 0, i32 9
  %18 = load ptr, ptr %17, align 8, !tbaa !9
  store ptr %18, ptr %5, align 8, !tbaa !22
  call void @llvm.lifetime.start.p0(i64 16, ptr %6) #6
  call void @llvm.lifetime.start.p0(i64 8, ptr %7) #6
  call void @llvm.lifetime.start.p0(i64 8, ptr %8) #6
  call void @llvm.lifetime.start.p0(i64 8, ptr %9) #6
  call void @llvm.lifetime.start.p0(i64 8, ptr %10) #6
  call void @llvm.lifetime.start.p0(i64 8, ptr %11) #6
  %19 = load ptr, ptr %3, align 8, !tbaa !37
  %20 = getelementptr inbounds nuw %struct.AVFilterLink, ptr %19, i32 0, i32 5
  %21 = load i32, ptr %20, align 4, !tbaa !57
  %22 = call ptr @av_pix_fmt_desc_get(i32 noundef %21)
  store ptr %22, ptr %11, align 8, !tbaa !58
  %23 = getelementptr inbounds [4 x i32], ptr %6, i64 0, i64 0
  %24 = load ptr, ptr %11, align 8, !tbaa !58
  call void @av_image_fill_max_pixsteps(ptr noundef %23, ptr noundef null, ptr noundef %24)
  %25 = load ptr, ptr %5, align 8, !tbaa !22
  %26 = getelementptr inbounds nuw %struct.SiTiContext, ptr %25, i32 0, i32 5
  call void @av_freep(ptr noundef %26)
  %27 = load ptr, ptr %5, align 8, !tbaa !22
  %28 = getelementptr inbounds nuw %struct.SiTiContext, ptr %27, i32 0, i32 12
  call void @av_freep(ptr noundef %28)
  %29 = load ptr, ptr %5, align 8, !tbaa !22
  %30 = getelementptr inbounds nuw %struct.SiTiContext, ptr %29, i32 0, i32 13
  call void @av_freep(ptr noundef %30)
  %31 = getelementptr inbounds [4 x i32], ptr %6, i64 0, i64 0
  %32 = load i32, ptr %31, align 16, !tbaa !52
  %33 = load ptr, ptr %5, align 8, !tbaa !22
  %34 = getelementptr inbounds nuw %struct.SiTiContext, ptr %33, i32 0, i32 1
  store i32 %32, ptr %34, align 8, !tbaa !60
  %35 = load ptr, ptr %3, align 8, !tbaa !37
  %36 = getelementptr inbounds nuw %struct.AVFilterLink, ptr %35, i32 0, i32 6
  %37 = load i32, ptr %36, align 8, !tbaa !61
  %38 = load ptr, ptr %5, align 8, !tbaa !22
  %39 = getelementptr inbounds nuw %struct.SiTiContext, ptr %38, i32 0, i32 2
  store i32 %37, ptr %39, align 4, !tbaa !54
  %40 = load ptr, ptr %3, align 8, !tbaa !37
  %41 = getelementptr inbounds nuw %struct.AVFilterLink, ptr %40, i32 0, i32 7
  %42 = load i32, ptr %41, align 4, !tbaa !62
  %43 = load ptr, ptr %5, align 8, !tbaa !22
  %44 = getelementptr inbounds nuw %struct.SiTiContext, ptr %43, i32 0, i32 3
  store i32 %42, ptr %44, align 8, !tbaa !55
  %45 = load ptr, ptr %5, align 8, !tbaa !22
  %46 = getelementptr inbounds nuw %struct.SiTiContext, ptr %45, i32 0, i32 1
  %47 = load i32, ptr %46, align 8, !tbaa !60
  %48 = icmp eq i32 %47, 1
  %49 = select i1 %48, i64 1, i64 2
  store i64 %49, ptr %7, align 8, !tbaa !63
  %50 = load ptr, ptr %5, align 8, !tbaa !22
  %51 = getelementptr inbounds nuw %struct.SiTiContext, ptr %50, i32 0, i32 2
  %52 = load i32, ptr %51, align 4, !tbaa !54
  %53 = sext i32 %52 to i64
  %54 = load i64, ptr %7, align 8, !tbaa !63
  %55 = mul i64 %53, %54
  %56 = load ptr, ptr %5, align 8, !tbaa !22
  %57 = getelementptr inbounds nuw %struct.SiTiContext, ptr %56, i32 0, i32 3
  %58 = load i32, ptr %57, align 8, !tbaa !55
  %59 = sext i32 %58 to i64
  %60 = mul i64 %55, %59
  store i64 %60, ptr %8, align 8, !tbaa !63
  %61 = load i64, ptr %8, align 8, !tbaa !63
  %62 = call noalias ptr @av_malloc(i64 noundef %61)
  %63 = load ptr, ptr %5, align 8, !tbaa !22
  %64 = getelementptr inbounds nuw %struct.SiTiContext, ptr %63, i32 0, i32 5
  store ptr %62, ptr %64, align 8, !tbaa !64
  %65 = load ptr, ptr %5, align 8, !tbaa !22
  %66 = getelementptr inbounds nuw %struct.SiTiContext, ptr %65, i32 0, i32 2
  %67 = load i32, ptr %66, align 4, !tbaa !54
  %68 = sub nsw i32 %67, 2
  %69 = sext i32 %68 to i64
  %70 = mul i64 %69, 4
  %71 = load ptr, ptr %5, align 8, !tbaa !22
  %72 = getelementptr inbounds nuw %struct.SiTiContext, ptr %71, i32 0, i32 3
  %73 = load i32, ptr %72, align 8, !tbaa !55
  %74 = sub nsw i32 %73, 2
  %75 = sext i32 %74 to i64
  %76 = mul i64 %70, %75
  store i64 %76, ptr %9, align 8, !tbaa !63
  %77 = load i64, ptr %9, align 8, !tbaa !63
  %78 = call noalias ptr @av_malloc(i64 noundef %77)
  %79 = load ptr, ptr %5, align 8, !tbaa !22
  %80 = getelementptr inbounds nuw %struct.SiTiContext, ptr %79, i32 0, i32 12
  store ptr %78, ptr %80, align 8, !tbaa !51
  %81 = load ptr, ptr %5, align 8, !tbaa !22
  %82 = getelementptr inbounds nuw %struct.SiTiContext, ptr %81, i32 0, i32 2
  %83 = load i32, ptr %82, align 4, !tbaa !54
  %84 = sext i32 %83 to i64
  %85 = mul i64 %84, 4
  %86 = load ptr, ptr %5, align 8, !tbaa !22
  %87 = getelementptr inbounds nuw %struct.SiTiContext, ptr %86, i32 0, i32 3
  %88 = load i32, ptr %87, align 8, !tbaa !55
  %89 = sext i32 %88 to i64
  %90 = mul i64 %85, %89
  store i64 %90, ptr %10, align 8, !tbaa !63
  %91 = load i64, ptr %10, align 8, !tbaa !63
  %92 = call noalias ptr @av_malloc(i64 noundef %91)
  %93 = load ptr, ptr %5, align 8, !tbaa !22
  %94 = getelementptr inbounds nuw %struct.SiTiContext, ptr %93, i32 0, i32 13
  store ptr %92, ptr %94, align 8, !tbaa !53
  %95 = load ptr, ptr %5, align 8, !tbaa !22
  %96 = getelementptr inbounds nuw %struct.SiTiContext, ptr %95, i32 0, i32 5
  %97 = load ptr, ptr %96, align 8, !tbaa !64
  %98 = icmp ne ptr %97, null
  br i1 %98, label %99, label %109

99:                                               ; preds = %1
  %100 = load ptr, ptr %5, align 8, !tbaa !22
  %101 = getelementptr inbounds nuw %struct.SiTiContext, ptr %100, i32 0, i32 12
  %102 = load ptr, ptr %101, align 8, !tbaa !51
  %103 = icmp ne ptr %102, null
  br i1 %103, label %104, label %109

104:                                              ; preds = %99
  %105 = load ptr, ptr %5, align 8, !tbaa !22
  %106 = getelementptr inbounds nuw %struct.SiTiContext, ptr %105, i32 0, i32 13
  %107 = load ptr, ptr %106, align 8, !tbaa !53
  %108 = icmp ne ptr %107, null
  br i1 %108, label %110, label %109

109:                                              ; preds = %104, %99, %1
  store i32 -12, ptr %2, align 4
  store i32 1, ptr %12, align 4
  br label %111

110:                                              ; preds = %104
  store i32 0, ptr %2, align 4
  store i32 1, ptr %12, align 4
  br label %111

111:                                              ; preds = %110, %109
  call void @llvm.lifetime.end.p0(i64 8, ptr %11) #6
  call void @llvm.lifetime.end.p0(i64 8, ptr %10) #6
  call void @llvm.lifetime.end.p0(i64 8, ptr %9) #6
  call void @llvm.lifetime.end.p0(i64 8, ptr %8) #6
  call void @llvm.lifetime.end.p0(i64 8, ptr %7) #6
  call void @llvm.lifetime.end.p0(i64 16, ptr %6) #6
  call void @llvm.lifetime.end.p0(i64 8, ptr %5) #6
  call void @llvm.lifetime.end.p0(i64 8, ptr %4) #6
  %112 = load i32, ptr %2, align 4
  ret i32 %112
}