; Function Attrs: nounwind uwtable
define internal range(i32 -12, 1) i32 @config_input(ptr noundef readonly captures(none) %0) #2 {
  %2 = alloca [4 x i32], align 16
  %3 = getelementptr inbounds nuw i8, ptr %0, i64 16
  %4 = load ptr, ptr %3, align 8, !tbaa !32
  %5 = getelementptr inbounds nuw i8, ptr %4, i64 72
  %6 = load ptr, ptr %5, align 8, !tbaa !4
  call void @llvm.lifetime.start.p0(i64 16, ptr nonnull %2) #7
  %7 = getelementptr inbounds nuw i8, ptr %0, i64 36
  %8 = load i32, ptr %7, align 4, !tbaa !79
  %9 = tail call ptr @av_pix_fmt_desc_get(i32 noundef %8) #7
  call void @av_image_fill_max_pixsteps(ptr noundef nonnull %2, ptr noundef null, ptr noundef %9) #7
  %10 = getelementptr inbounds nuw i8, ptr %6, i64 32
  call void @av_freep(ptr noundef nonnull %10) #7
  %11 = getelementptr inbounds nuw i8, ptr %6, i64 64
  call void @av_freep(ptr noundef nonnull %11) #7
  %12 = getelementptr inbounds nuw i8, ptr %6, i64 72
  call void @av_freep(ptr noundef nonnull %12) #7
  %13 = load i32, ptr %2, align 16, !tbaa !50
  %14 = getelementptr inbounds nuw i8, ptr %6, i64 8
  store i32 %13, ptr %14, align 8, !tbaa !51
  %15 = getelementptr inbounds nuw i8, ptr %0, i64 40
  %16 = load i32, ptr %15, align 8, !tbaa !80
  %17 = getelementptr inbounds nuw i8, ptr %6, i64 12
  store i32 %16, ptr %17, align 4, !tbaa !53
  %18 = getelementptr inbounds nuw i8, ptr %0, i64 44
  %19 = load i32, ptr %18, align 4, !tbaa !81
  %20 = getelementptr inbounds nuw i8, ptr %6, i64 16
  store i32 %19, ptr %20, align 8, !tbaa !52
  %21 = icmp ne i32 %13, 1
  %22 = sext i32 %16 to i64
  %23 = zext i1 %21 to i64
  %24 = shl nsw i64 %22, %23
  %25 = sext i32 %19 to i64
  %26 = mul i64 %24, %25
  %27 = call noalias ptr @av_malloc(i64 noundef %26) #7
  store ptr %27, ptr %10, align 8, !tbaa !55
  %28 = load i32, ptr %17, align 4, !tbaa !53
  %29 = add nsw i32 %28, -2
  %30 = sext i32 %29 to i64
  %31 = shl nsw i64 %30, 2
  %32 = load i32, ptr %20, align 8, !tbaa !52
  %33 = add nsw i32 %32, -2
  %34 = sext i32 %33 to i64
  %35 = mul i64 %31, %34
  %36 = call noalias ptr @av_malloc(i64 noundef %35) #7
  store ptr %36, ptr %11, align 8, !tbaa !49
  %37 = load i32, ptr %17, align 4, !tbaa !53
  %38 = sext i32 %37 to i64
  %39 = shl nsw i64 %38, 2
  %40 = load i32, ptr %20, align 8, !tbaa !52
  %41 = sext i32 %40 to i64
  %42 = mul i64 %39, %41
  %43 = call noalias ptr @av_malloc(i64 noundef %42) #7
  store ptr %43, ptr %12, align 8, !tbaa !54
  %44 = load ptr, ptr %10, align 8, !tbaa !55
  %.not = icmp eq ptr %44, null
  br i1 %.not, label %47, label %45

45:                                               ; preds = %1
  %46 = load ptr, ptr %11, align 8, !tbaa !49
  %.not29 = icmp eq ptr %46, null
  %.not30 = icmp eq ptr %43, null
  %or.cond = select i1 %.not29, i1 true, i1 %.not30
  %spec.select = select i1 %or.cond, i32 -12, i32 0
  br label %47

47:                                               ; preds = %45, %1
  %.0 = phi i32 [ -12, %1 ], [ %spec.select, %45 ]
  call void @llvm.lifetime.end.p0(i64 16, ptr nonnull %2) #7
  ret i32 %.0
}